; Function Attrs: mustprogress nounwind uwtable
define dso_local noundef zeroext i1 @_ZN4node3url11BindingData12FastCanParseEN2v85LocalINS2_5ValueEEERKNS2_17FastOneByteStringE(ptr nocapture readnone %receiver.coerce, ptr nocapture noundef nonnull readonly align 8 dereferenceable(16) %input) #3 align 2 {
entry:
  %0 = load ptr, ptr %input, align 8
  %length = getelementptr inbounds i8, ptr %input, i64 8
  %1 = load i32, ptr %length, align 8
  %conv = zext i32 %1 to i64
  %call = tail call noundef zeroext i1 @_ZN3ada9can_parseESt17basic_string_viewIcSt11char_traitsIcEEPKS3_(i64 %conv, ptr %0, ptr noundef null) #22
  ret i1 %call
}